target datalayout = "e-m:e-p270:32:32-p271:32:32-p272:64:64-i64:64-i128:128-f80:128-n8:16:32:64-S128"
target triple = "x86_64-pc-linux-gnu"

%struct._zend_refcounted_h = type { i32, %union.anon }
%union.anon = type { i32 }
%struct.smart_str = type { ptr, i64 }
%struct._zend_string = type { %struct._zend_refcounted_h, i64, i64, [1 x i8] }
%struct._php_json_encoder = type { i32, i32, i32 }

@.str.21 = private unnamed_addr constant [5 x i8] c"    \00", align 1

; Function Attrs: alwaysinline nounwind uwtable
define internal i64 @smart_str_alloc(ptr noundef %0, i64 noundef %1, i1 noundef zeroext %2) #2 {
  %4 = alloca ptr, align 8
  %5 = alloca i64, align 8
  %6 = alloca i8, align 1
  store ptr %0, ptr %4, align 8, !tbaa !4
  store i64 %1, ptr %5, align 8, !tbaa !10
  %7 = zext i1 %2 to i8
  store i8 %7, ptr %6, align 1, !tbaa !31
  %8 = load ptr, ptr %4, align 8, !tbaa !4
  %9 = getelementptr inbounds nuw %struct.smart_str, ptr %8, i32 0, i32 0
  %10 = load ptr, ptr %9, align 8, !tbaa !18
  %11 = icmp ne ptr %10, null
  %12 = xor i1 %11, true
  %13 = xor i1 %12, true
  %14 = xor i1 %13, true
  %15 = zext i1 %14 to i32
  %16 = sext i32 %15 to i64
  %17 = call i64 @llvm.expect.i64(i64 %16, i64 0)
  %18 = icmp ne i64 %17, 0
  br i1 %18, label %19, label %20

19:                                               ; preds = %3
  br label %40

20:                                               ; preds = %3
  %21 = load ptr, ptr %4, align 8, !tbaa !4
  %22 = getelementptr inbounds nuw %struct.smart_str, ptr %21, i32 0, i32 0
  %23 = load ptr, ptr %22, align 8, !tbaa !18
  %24 = getelementptr inbounds nuw %struct._zend_string, ptr %23, i32 0, i32 2
  %25 = load i64, ptr %24, align 8, !tbaa !21
  %26 = load i64, ptr %5, align 8, !tbaa !10
  %27 = add i64 %26, %25
  store i64 %27, ptr %5, align 8, !tbaa !10
  %28 = load i64, ptr %5, align 8, !tbaa !10
  %29 = load ptr, ptr %4, align 8, !tbaa !4
  %30 = getelementptr inbounds nuw %struct.smart_str, ptr %29, i32 0, i32 1
  %31 = load i64, ptr %30, align 8, !tbaa !42
  %32 = icmp uge i64 %28, %31
  %33 = xor i1 %32, true
  %34 = xor i1 %33, true
  %35 = zext i1 %34 to i32
  %36 = sext i32 %35 to i64
  %37 = call i64 @llvm.expect.i64(i64 %36, i64 0)
  %38 = icmp ne i64 %37, 0
  br i1 %38, label %39, label %50

39:                                               ; preds = %20
  br label %40

40:                                               ; preds = %39, %19
  %41 = load i8, ptr %6, align 1, !tbaa !31, !range !33, !noundef !34
  %42 = trunc i8 %41 to i1
  br i1 %42, label %43, label %46

43:                                               ; preds = %40
  %44 = load ptr, ptr %4, align 8, !tbaa !4
  %45 = load i64, ptr %5, align 8, !tbaa !10
  call void @smart_str_realloc(ptr noundef %44, i64 noundef %45)
  br label %49

46:                                               ; preds = %40
  %47 = load ptr, ptr %4, align 8, !tbaa !4
  %48 = load i64, ptr %5, align 8, !tbaa !10
  call void @smart_str_erealloc(ptr noundef %47, i64 noundef %48)
  br label %49

49:                                               ; preds = %46, %43
  br label %50

50:                                               ; preds = %49, %20
  br label %51

51:                                               ; preds = %50
  %52 = load i64, ptr %5, align 8, !tbaa !10
  ret i64 %52
}

; Function Attrs: alwaysinline nounwind uwtable
define internal void @smart_str_appendl_ex(ptr noundef %0, ptr noundef %1, i64 noundef %2, i1 noundef zeroext %3) #2 {
  %5 = alloca ptr, align 8
  %6 = alloca ptr, align 8
  %7 = alloca i64, align 8
  %8 = alloca i8, align 1
  %9 = alloca i64, align 8
  store ptr %0, ptr %5, align 8, !tbaa !4
  store ptr %1, ptr %6, align 8, !tbaa !8
  store i64 %2, ptr %7, align 8, !tbaa !10
  %10 = zext i1 %3 to i8
  store i8 %10, ptr %8, align 1, !tbaa !31
  call void @llvm.lifetime.start.p0(i64 8, ptr %9) #10
  %11 = load ptr, ptr %5, align 8, !tbaa !4
  %12 = load i64, ptr %7, align 8, !tbaa !10
  %13 = load i8, ptr %8, align 1, !tbaa !31, !range !33, !noundef !34
  %14 = trunc i8 %13 to i1
  %15 = call i64 @smart_str_alloc(ptr noundef %11, i64 noundef %12, i1 noundef zeroext %14)
  store i64 %15, ptr %9, align 8, !tbaa !10
  %16 = load ptr, ptr %5, align 8, !tbaa !4
  %17 = getelementptr inbounds nuw %struct.smart_str, ptr %16, i32 0, i32 0
  %18 = load ptr, ptr %17, align 8, !tbaa !18
  %19 = getelementptr inbounds nuw %struct._zend_string, ptr %18, i32 0, i32 3
  %20 = getelementptr inbounds [1 x i8], ptr %19, i64 0, i64 0
  %21 = load ptr, ptr %5, align 8, !tbaa !4
  %22 = getelementptr inbounds nuw %struct.smart_str, ptr %21, i32 0, i32 0
  %23 = load ptr, ptr %22, align 8, !tbaa !18
  %24 = getelementptr inbounds nuw %struct._zend_string, ptr %23, i32 0, i32 2
  %25 = load i64, ptr %24, align 8, !tbaa !21
  %26 = getelementptr inbounds nuw i8, ptr %20, i64 %25
  %27 = load ptr, ptr %6, align 8, !tbaa !8
  %28 = load i64, ptr %7, align 8, !tbaa !10
  call void @llvm.memcpy.p0.p0.i64(ptr align 1 %26, ptr align 1 %27, i64 %28, i1 false)
  %29 = load i64, ptr %9, align 8, !tbaa !10
  %30 = load ptr, ptr %5, align 8, !tbaa !4
  %31 = getelementptr inbounds nuw %struct.smart_str, ptr %30, i32 0, i32 0
  %32 = load ptr, ptr %31, align 8, !tbaa !18
  %33 = getelementptr inbounds nuw %struct._zend_string, ptr %32, i32 0, i32 2
  store i64 %29, ptr %33, align 8, !tbaa !21
  call void @llvm.lifetime.end.p0(i64 8, ptr %9) #10
  ret void
}

; Function Attrs: alwaysinline nounwind uwtable
define internal void @smart_str_appendl(ptr noundef %0, ptr noundef %1, i64 noundef %2) #2 {
  %4 = alloca ptr, align 8
  %5 = alloca ptr, align 8
  %6 = alloca i64, align 8
  store ptr %0, ptr %4, align 8, !tbaa !4
  store ptr %1, ptr %5, align 8, !tbaa !8
  store i64 %2, ptr %6, align 8, !tbaa !10
  %7 = load ptr, ptr %4, align 8, !tbaa !4
  %8 = load ptr, ptr %5, align 8, !tbaa !8
  %9 = load i64, ptr %6, align 8, !tbaa !10
  call void @smart_str_appendl_ex(ptr noundef %7, ptr noundef %8, i64 noundef %9, i1 noundef zeroext false)
  ret void
}

; Function Attrs: inlinehint nounwind uwtable
define internal void @php_json_pretty_print_indent(ptr noundef %0, i32 noundef %1, ptr noundef %2) #3 {
  %4 = alloca ptr, align 8
  %5 = alloca i32, align 4
  %6 = alloca ptr, align 8
  %7 = alloca i32, align 4
  store ptr %0, ptr %4, align 8, !tbaa !4
  store i32 %1, ptr %5, align 4, !tbaa !12
  store ptr %2, ptr %6, align 8, !tbaa !14
  call void @llvm.lifetime.start.p0(i64 4, ptr %7) #10
  %8 = load i32, ptr %5, align 4, !tbaa !12
  %9 = and i32 %8, 128
  %10 = icmp ne i32 %9, 0
  br i1 %10, label %11, label %24

11:                                               ; preds = %3
  store i32 0, ptr %7, align 4, !tbaa !12
  br label %12

12:                                               ; preds = %20, %11
  %13 = load i32, ptr %7, align 4, !tbaa !12
  %14 = load ptr, ptr %6, align 8, !tbaa !14
  %15 = getelementptr inbounds nuw %struct._php_json_encoder, ptr %14, i32 0, i32 0
  %16 = load i32, ptr %15, align 4, !tbaa !80
  %17 = icmp slt i32 %13, %16
  br i1 %17, label %18, label %23

18:                                               ; preds = %12
  %19 = load ptr, ptr %4, align 8, !tbaa !4
  call void @smart_str_appendl(ptr noundef %19, ptr noundef @.str.21, i64 noundef 4)
  br label %20

20:                                               ; preds = %18
  %21 = load i32, ptr %7, align 4, !tbaa !12
  %22 = add nsw i32 %21, 1
  store i32 %22, ptr %7, align 4, !tbaa !12
  br label %12

23:                                               ; preds = %12
  br label %24

24:                                               ; preds = %23, %3
  call void @llvm.lifetime.end.p0(i64 4, ptr %7) #10
  ret void
}