; Function Attrs: inlinehint nounwind uwtable
define internal fastcc void @php_json_pretty_print_indent(ptr noundef %0, i32 noundef %1, ptr noundef readonly captures(none) %2) unnamed_addr #7 {
  %4 = and i32 %1, 128
  %.not = icmp eq i32 %4, 0
  br i1 %.not, label %.loopexit, label %.preheader

.preheader:                                       ; preds = %3
  %5 = load i32, ptr %2, align 4, !tbaa !94
  %6 = icmp sgt i32 %5, 0
  br i1 %6, label %.lr.ph, label %.loopexit

.lr.ph:                                           ; preds = %.preheader
  %7 = getelementptr inbounds nuw i8, ptr %0, i64 8
  %.pre = load ptr, ptr %0, align 8, !tbaa !4
  br label %8

8:                                                ; preds = %.lr.ph, %smart_str_appendl_ex.exit
  %9 = phi ptr [ %.pre, %.lr.ph ], [ %20, %smart_str_appendl_ex.exit ]
  %.04 = phi i32 [ 0, %.lr.ph ], [ %22, %smart_str_appendl_ex.exit ]
  %.not.i.i = icmp eq ptr %9, null
  br i1 %.not.i.i, label %15, label %10, !prof !11

10:                                               ; preds = %8
  %11 = getelementptr inbounds nuw i8, ptr %9, i64 16
  %12 = load i64, ptr %11, align 8, !tbaa !12
  %13 = add i64 %12, 4
  %14 = load i64, ptr %7, align 8, !tbaa !16
  %.not12.i.i = icmp ult i64 %13, %14
  br i1 %.not12.i.i, label %smart_str_appendl_ex.exit, label %15, !prof !17

15:                                               ; preds = %10, %8
  %.0.i.i = phi i64 [ 4, %8 ], [ %13, %10 ]
  tail call void @smart_str_erealloc(ptr noundef nonnull %0, i64 noundef %.0.i.i) #9
  %.pre5 = load ptr, ptr %0, align 8, !tbaa !4
  %.phi.trans.insert = getelementptr inbounds nuw i8, ptr %.pre5, i64 16
  %.pre6 = load i64, ptr %.phi.trans.insert, align 8, !tbaa !12
  br label %smart_str_appendl_ex.exit

smart_str_appendl_ex.exit:                        ; preds = %10, %15
  %16 = phi i64 [ %.pre6, %15 ], [ %12, %10 ]
  %17 = phi ptr [ %.pre5, %15 ], [ %9, %10 ]
  %.1.i.i = phi i64 [ %.0.i.i, %15 ], [ %13, %10 ]
  %18 = getelementptr inbounds nuw i8, ptr %17, i64 24
  %19 = getelementptr inbounds nuw i8, ptr %18, i64 %16
  store i32 538976288, ptr %19, align 1
  %20 = load ptr, ptr %0, align 8, !tbaa !4
  %21 = getelementptr inbounds nuw i8, ptr %20, i64 16
  store i64 %.1.i.i, ptr %21, align 8, !tbaa !12
  %22 = add nuw nsw i32 %.04, 1
  %23 = load i32, ptr %2, align 4, !tbaa !94
  %24 = icmp slt i32 %22, %23
  br i1 %24, label %8, label %.loopexit

.loopexit:                                        ; preds = %smart_str_appendl_ex.exit, %.preheader, %3
  ret void
}